target datalayout = "e-m:e-p270:32:32-p271:32:32-p272:64:64-i64:64-i128:128-f80:128-n8:16:32:64-S128"
target triple = "x86_64-pc-linux-gnu"

%"struct.cv::utils::trace::details::Region::LocationStaticStorage" = type { ptr, ptr, ptr, i32, i32 }
%"struct.cv::MatSize" = type { ptr }
%"struct.cv::MatStep" = type { ptr, [2 x i64] }
%"class.cv::utils::trace::details::Region" = type <{ ptr, i32, [4 x i8] }>
%"class.cv::Mat" = type { i32, i32, i32, i32, ptr, ptr, ptr, ptr, ptr, ptr, %"struct.cv::MatSize", %"struct.cv::MatStep" }

@_ZZN2cv4UMat5setToERKNS_11_InputArrayES3_E26__cv_trace_location_fn1243 = internal constant %"struct.cv::utils::trace::details::Region::LocationStaticStorage" { ptr @_ZZN2cv4UMat5setToERKNS_11_InputArrayES3_E32__cv_trace_location_extra_fn1243, ptr @.str.39, ptr @.str.1, i32 1243, i32 1 }, align 8

; Function Attrs: mustprogress uwtable
define noundef nonnull align 8 dereferenceable(80) ptr @_ZN2cv4UMat5setToERKNS_11_InputArrayES3_(ptr noundef nonnull align 8 dereferenceable(80) %0, ptr noundef nonnull align 8 dereferenceable(24) %1, ptr noundef nonnull align 8 dereferenceable(24) %2) #3 align 2 personality ptr @__gxx_personality_v0 {
  %4 = alloca ptr, align 8
  %5 = alloca ptr, align 8
  %6 = alloca ptr, align 8
  %7 = alloca %"class.cv::utils::trace::details::Region", align 8
  %8 = alloca i8, align 1
  %9 = alloca ptr, align 8
  %10 = alloca i32, align 4
  %11 = alloca %"class.cv::Mat", align 8
  store ptr %0, ptr %4, align 8, !tbaa !65
  store ptr %1, ptr %5, align 8, !tbaa !174
  store ptr %2, ptr %6, align 8, !tbaa !174
  %12 = load ptr, ptr %4, align 8
  call void @llvm.lifetime.start.p0(i64 16, ptr %7) #16
  call void @_ZN2cv5utils5trace7details6RegionC1ERKNS3_21LocationStaticStorageE(ptr noundef nonnull align 8 dereferenceable(12) %7, ptr noundef nonnull align 8 dereferenceable(32) @_ZZN2cv4UMat5setToERKNS_11_InputArrayES3_E26__cv_trace_location_fn1243)
  call void @llvm.lifetime.start.p0(i64 1, ptr %8) #16
  %13 = load ptr, ptr %6, align 8, !tbaa !174
  %14 = invoke noundef zeroext i1 @_ZNK2cv11_InputArray5emptyEv(ptr noundef nonnull align 8 dereferenceable(24) %13)
          to label %15 unwind label %26

15:                                               ; preds = %3
  %16 = xor i1 %14, true
  %17 = zext i1 %16 to i8
  store i8 %17, ptr %8, align 1, !tbaa !35
  call void @llvm.lifetime.start.p0(i64 96, ptr %11) #16
  %18 = load i8, ptr %8, align 1, !tbaa !35, !range !38, !noundef !39
  %19 = trunc i8 %18 to i1
  %20 = select i1 %19, i32 50331648, i32 33554432
  invoke void @_ZNK2cv4UMat6getMatENS_10AccessFlagE(ptr dead_on_unwind writable sret(%"class.cv::Mat") align 8 %11, ptr noundef nonnull align 8 dereferenceable(80) %12, i32 noundef %20)
          to label %21 unwind label %30

21:                                               ; preds = %15
  %22 = load ptr, ptr %5, align 8, !tbaa !174
  %23 = load ptr, ptr %6, align 8, !tbaa !174
  %24 = invoke noundef nonnull align 8 dereferenceable(96) ptr @_ZN2cv3Mat5setToERKNS_11_InputArrayES3_(ptr noundef nonnull align 8 dereferenceable(96) %11, ptr noundef nonnull align 8 dereferenceable(24) %22, ptr noundef nonnull align 8 dereferenceable(24) %23)
          to label %25 unwind label %34

25:                                               ; preds = %21
  call void @_ZN2cv3MatD1Ev(ptr noundef nonnull align 8 dereferenceable(96) %11) #16
  call void @llvm.lifetime.end.p0(i64 96, ptr %11) #16
  call void @llvm.lifetime.end.p0(i64 1, ptr %8) #16
  call void @_ZN2cv5utils5trace7details6RegionD2Ev(ptr noundef nonnull align 8 dereferenceable(12) %7) #16
  call void @llvm.lifetime.end.p0(i64 16, ptr %7) #16
  ret ptr %12

26:                                               ; preds = %3
  %27 = landingpad { ptr, i32 }
          cleanup
  %28 = extractvalue { ptr, i32 } %27, 0
  store ptr %28, ptr %9, align 8
  %29 = extractvalue { ptr, i32 } %27, 1
  store i32 %29, ptr %10, align 4
  br label %39

30:                                               ; preds = %15
  %31 = landingpad { ptr, i32 }
          cleanup
  %32 = extractvalue { ptr, i32 } %31, 0
  store ptr %32, ptr %9, align 8
  %33 = extractvalue { ptr, i32 } %31, 1
  store i32 %33, ptr %10, align 4
  br label %38

34:                                               ; preds = %21
  %35 = landingpad { ptr, i32 }
          cleanup
  %36 = extractvalue { ptr, i32 } %35, 0
  store ptr %36, ptr %9, align 8
  %37 = extractvalue { ptr, i32 } %35, 1
  store i32 %37, ptr %10, align 4
  call void @_ZN2cv3MatD1Ev(ptr noundef nonnull align 8 dereferenceable(96) %11) #16
  br label %38

38:                                               ; preds = %34, %30
  call void @llvm.lifetime.end.p0(i64 96, ptr %11) #16
  br label %39

39:                                               ; preds = %38, %26
  call void @llvm.lifetime.end.p0(i64 1, ptr %8) #16
  call void @_ZN2cv5utils5trace7details6RegionD2Ev(ptr noundef nonnull align 8 dereferenceable(12) %7) #16
  call void @llvm.lifetime.end.p0(i64 16, ptr %7) #16
  br label %40

40:                                               ; preds = %39
  %41 = load ptr, ptr %9, align 8
  %42 = load i32, ptr %10, align 4
  %43 = insertvalue { ptr, i32 } poison, ptr %41, 0
  %44 = insertvalue { ptr, i32 } %43, i32 %42, 1
  resume { ptr, i32 } %44
}