; Function Attrs: mustprogress uwtable
define noundef nonnull align 8 dereferenceable(80) ptr @_ZN2cv4UMat5setToERKNS_11_InputArrayES3_(ptr noundef nonnull readonly returned align 8 dereferenceable(80) %0, ptr noundef nonnull align 8 dereferenceable(24) %1, ptr noundef nonnull align 8 dereferenceable(24) %2) local_unnamed_addr #4 align 2 personality ptr @__gxx_personality_v0 {
  %4 = alloca %"class.cv::utils::trace::details::Region", align 8
  %5 = alloca %"class.cv::Mat", align 8
  call void @llvm.lifetime.start.p0(i64 16, ptr nonnull %4) #25
  call void @_ZN2cv5utils5trace7details6RegionC1ERKNS3_21LocationStaticStorageE(ptr noundef nonnull align 8 dereferenceable(12) %4, ptr noundef nonnull align 8 dereferenceable(32) @_ZZN2cv4UMat5setToERKNS_11_InputArrayES3_E26__cv_trace_location_fn1243)
  %6 = invoke noundef zeroext i1 @_ZNK2cv11_InputArray5emptyEv(ptr noundef nonnull align 8 dereferenceable(24) %2)
          to label %7 unwind label %18

7:                                                ; preds = %3
  call void @llvm.lifetime.start.p0(i64 96, ptr nonnull %5) #25
  %8 = select i1 %6, i32 33554432, i32 50331648
  invoke void @_ZNK2cv4UMat6getMatENS_10AccessFlagE(ptr dead_on_unwind nonnull writable sret(%"class.cv::Mat") align 8 %5, ptr noundef nonnull align 8 dereferenceable(80) %0, i32 noundef %8)
          to label %9 unwind label %20

9:                                                ; preds = %7
  %10 = invoke noundef nonnull align 8 dereferenceable(96) ptr @_ZN2cv3Mat5setToERKNS_11_InputArrayES3_(ptr noundef nonnull align 8 dereferenceable(96) %5, ptr noundef nonnull align 8 dereferenceable(24) %1, ptr noundef nonnull align 8 dereferenceable(24) %2)
          to label %11 unwind label %22

11:                                               ; preds = %9
  call void @_ZN2cv3MatD1Ev(ptr noundef nonnull align 8 dereferenceable(96) %5) #25
  call void @llvm.lifetime.end.p0(i64 96, ptr nonnull %5) #25
  %12 = getelementptr inbounds nuw i8, ptr %4, i64 8
  %13 = load i32, ptr %12, align 8, !tbaa !79
  %.not.i = icmp eq i32 %13, 0
  br i1 %.not.i, label %_ZN2cv5utils5trace7details6RegionD2Ev.exit, label %14

14:                                               ; preds = %11
  invoke void @_ZN2cv5utils5trace7details6Region7destroyEv(ptr noundef nonnull align 8 dereferenceable(12) %4)
          to label %_ZN2cv5utils5trace7details6RegionD2Ev.exit unwind label %15

15:                                               ; preds = %14
  %16 = landingpad { ptr, i32 }
          catch ptr null
  %17 = extractvalue { ptr, i32 } %16, 0
  call void @__clang_call_terminate(ptr %17) #27
  unreachable

_ZN2cv5utils5trace7details6RegionD2Ev.exit:       ; preds = %11, %14
  call void @llvm.lifetime.end.p0(i64 16, ptr nonnull %4) #25
  ret ptr %0

18:                                               ; preds = %3
  %19 = landingpad { ptr, i32 }
          cleanup
  br label %25

20:                                               ; preds = %7
  %21 = landingpad { ptr, i32 }
          cleanup
  br label %24

22:                                               ; preds = %9
  %23 = landingpad { ptr, i32 }
          cleanup
  call void @_ZN2cv3MatD1Ev(ptr noundef nonnull align 8 dereferenceable(96) %5) #25
  br label %24

24:                                               ; preds = %22, %20
  %.pn = phi { ptr, i32 } [ %23, %22 ], [ %21, %20 ]
  call void @llvm.lifetime.end.p0(i64 96, ptr nonnull %5) #25
  br label %25

25:                                               ; preds = %24, %18
  %.pn.pn = phi { ptr, i32 } [ %.pn, %24 ], [ %19, %18 ]
  call void @_ZN2cv5utils5trace7details6RegionD2Ev(ptr noundef nonnull align 8 dereferenceable(12) %4) #25
  call void @llvm.lifetime.end.p0(i64 16, ptr nonnull %4) #25
  resume { ptr, i32 } %.pn.pn
}